target datalayout = "e-m:e-p270:32:32-p271:32:32-p272:64:64-i64:64-i128:128-f80:128-n8:16:32:64-S128"
target triple = "x86_64-pc-linux-gnu"

%struct.FWCfgState = type { %struct.SysBusDevice, i16, [2 x ptr], ptr, ptr, i16, i32, %struct.Notifier, i32, i8, i64, ptr, %struct.MemoryRegion, i8, i64, i64, i64 }
%struct.SysBusDevice = type { %struct.DeviceState, i32, [32 x %struct.anon], i32, [32 x i32] }
%struct.DeviceState = type { %struct.Object, ptr, ptr, i8, i8, i64, i32, i8, ptr, %struct.NamedGPIOListHead, %struct.NamedClockListHead, %struct.BusStateHead, i32, i32, i32, %struct.ResettableState, ptr, %struct.MemReentrancyGuard }
%struct.Object = type { ptr, ptr, ptr, i32, ptr }
%struct.NamedGPIOListHead = type { ptr }
%struct.NamedClockListHead = type { ptr }
%struct.BusStateHead = type { ptr }
%struct.ResettableState = type { i32, i8, i8 }
%struct.MemReentrancyGuard = type { i8 }
%struct.anon = type { i64, ptr }
%struct.Notifier = type { ptr, %struct.anon.0 }
%struct.anon.0 = type { ptr, ptr }
%struct.MemoryRegion = type { %struct.Object, i8, i8, i8, i8, i8, i8, i8, i8, i8, i8, ptr, ptr, ptr, ptr, ptr, ptr, i32, i128, i64, ptr, i64, i8, i8, i8, i8, ptr, i64, i32, %union.anon, %union.anon.1, %union.anon.2, ptr, i32, ptr, ptr, i8 }
%union.anon = type { %struct.QTailQLink }
%struct.QTailQLink = type { ptr, ptr }
%union.anon.1 = type { %struct.QTailQLink }
%union.anon.2 = type { %struct.QTailQLink }
%struct.ErrorPropagator = type { ptr, ptr }
%struct.FWCfgIoState = type { %struct.FWCfgState, %struct.MemoryRegion }

@error_fatal = external global ptr, align 8
@.str.10 = private unnamed_addr constant [10 x i8] c"fw_cfg_io\00", align 1
@.str.12 = private unnamed_addr constant [7 x i8] c"fw_cfg\00", align 1
@.str.80 = private unnamed_addr constant [104 x i8] c"/home/dtcxzyw/WorkSpace/Projects/compilers/llvm-opt-benchmark/bench/qemu/qemu/include/hw/nvram/fw_cfg.h\00", align 1
@__func__.FW_CFG_IO = private unnamed_addr constant [10 x i8] c"FW_CFG_IO\00", align 1
@__func__.FW_CFG = private unnamed_addr constant [7 x i8] c"FW_CFG\00", align 1
@.str.113 = private unnamed_addr constant [6 x i8] c"fwcfg\00", align 1
@.str.114 = private unnamed_addr constant [10 x i8] c"fwcfg.dma\00", align 1

; Function Attrs: inlinehint nounwind sspstrong uwtable
define internal void @error_propagator_cleanup(ptr noundef %0) #2 {
  %2 = alloca ptr, align 8
  store ptr %0, ptr %2, align 8
  %3 = load ptr, ptr %2, align 8
  %4 = getelementptr inbounds nuw %struct.ErrorPropagator, ptr %3, i32 0, i32 1
  %5 = load ptr, ptr %4, align 8
  %6 = load ptr, ptr %2, align 8
  %7 = getelementptr inbounds nuw %struct.ErrorPropagator, ptr %6, i32 0, i32 0
  %8 = load ptr, ptr %7, align 8
  call void @error_propagate(ptr noundef %5, ptr noundef %8)
  ret void
}

; Function Attrs: inlinehint nounwind sspstrong uwtable
define internal void @glib_auto_cleanup_ErrorPropagator(ptr noundef %0) #2 {
  %2 = alloca ptr, align 8
  store ptr %0, ptr %2, align 8
  %3 = load ptr, ptr %2, align 8
  call void @error_propagator_cleanup(ptr noundef %3)
  ret void
}

; Function Attrs: inlinehint nounwind sspstrong uwtable
define internal ptr @FW_CFG(ptr noundef %0) #2 {
  %2 = alloca ptr, align 8
  store ptr %0, ptr %2, align 8
  %3 = load ptr, ptr %2, align 8
  %4 = call ptr @object_dynamic_cast_assert(ptr noundef %3, ptr noundef @.str.12, ptr noundef @.str.80, i32 noundef 15, ptr noundef @__func__.FW_CFG)
  ret ptr %4
}

; Function Attrs: inlinehint nounwind sspstrong uwtable
define internal ptr @FW_CFG_IO(ptr noundef %0) #2 {
  %2 = alloca ptr, align 8
  store ptr %0, ptr %2, align 8
  %3 = load ptr, ptr %2, align 8
  %4 = call ptr @object_dynamic_cast_assert(ptr noundef %3, ptr noundef @.str.10, ptr noundef @.str.80, i32 noundef 16, ptr noundef @__func__.FW_CFG_IO)
  ret ptr %4
}

; Function Attrs: nounwind sspstrong uwtable
define internal void @fw_cfg_io_realize(ptr noundef %0, ptr noundef %1) #0 {
  %3 = alloca ptr, align 8
  %4 = alloca ptr, align 8
  %5 = alloca %struct.ErrorPropagator, align 8
  %6 = alloca ptr, align 8
  %7 = alloca i32, align 4
  store ptr %0, ptr %3, align 8
  store ptr %1, ptr %4, align 8
  call void @llvm.lifetime.start.p0(i64 16, ptr %5) #18
  call void @llvm.memset.p0.i64(ptr align 8 %5, i8 0, i64 16, i1 false), !annotation !6
  %8 = getelementptr inbounds nuw %struct.ErrorPropagator, ptr %5, i32 0, i32 0
  store ptr null, ptr %8, align 8
  %9 = getelementptr inbounds nuw %struct.ErrorPropagator, ptr %5, i32 0, i32 1
  %10 = load ptr, ptr %4, align 8
  store ptr %10, ptr %9, align 8
  br label %11

11:                                               ; preds = %2
  %12 = load ptr, ptr %4, align 8
  %13 = icmp ne ptr %12, null
  br i1 %13, label %14, label %17

14:                                               ; preds = %11
  %15 = load ptr, ptr %4, align 8
  %16 = icmp eq ptr %15, @error_fatal
  br i1 %16, label %17, label %19

17:                                               ; preds = %14, %11
  %18 = getelementptr inbounds nuw %struct.ErrorPropagator, ptr %5, i32 0, i32 0
  store ptr %18, ptr %4, align 8
  br label %19

19:                                               ; preds = %17, %14
  br label %20

20:                                               ; preds = %19
  br label %21

21:                                               ; preds = %20
  call void @llvm.lifetime.start.p0(i64 8, ptr %6) #18
  %22 = load ptr, ptr %3, align 8
  %23 = call ptr @FW_CFG_IO(ptr noundef %22)
  store ptr %23, ptr %6, align 8
  %24 = load ptr, ptr %6, align 8
  %25 = call ptr @FW_CFG(ptr noundef %24)
  %26 = load ptr, ptr %4, align 8
  call void @fw_cfg_file_slots_allocate(ptr noundef %25, ptr noundef %26)
  %27 = load ptr, ptr %4, align 8
  %28 = load ptr, ptr %27, align 8
  %29 = icmp ne ptr %28, null
  br i1 %29, label %30, label %31

30:                                               ; preds = %21
  store i32 1, ptr %7, align 4
  br label %52

31:                                               ; preds = %21
  %32 = load ptr, ptr %6, align 8
  %33 = getelementptr inbounds nuw %struct.FWCfgIoState, ptr %32, i32 0, i32 1
  %34 = load ptr, ptr %6, align 8
  %35 = load ptr, ptr %6, align 8
  %36 = call ptr @FW_CFG(ptr noundef %35)
  call void @memory_region_init_io(ptr noundef %33, ptr noundef %34, ptr noundef @fw_cfg_comb_mem_ops, ptr noundef %36, ptr noundef @.str.113, i64 noundef 2)
  %37 = load ptr, ptr %6, align 8
  %38 = call ptr @FW_CFG(ptr noundef %37)
  %39 = getelementptr inbounds nuw %struct.FWCfgState, ptr %38, i32 0, i32 9
  %40 = load i8, ptr %39, align 4, !range !4, !noundef !5
  %41 = trunc i8 %40 to i1
  br i1 %41, label %42, label %49

42:                                               ; preds = %31
  %43 = load ptr, ptr %6, align 8
  %44 = call ptr @FW_CFG(ptr noundef %43)
  %45 = getelementptr inbounds nuw %struct.FWCfgState, ptr %44, i32 0, i32 12
  %46 = load ptr, ptr %6, align 8
  %47 = load ptr, ptr %6, align 8
  %48 = call ptr @FW_CFG(ptr noundef %47)
  call void @memory_region_init_io(ptr noundef %45, ptr noundef %46, ptr noundef @fw_cfg_dma_mem_ops, ptr noundef %48, ptr noundef @.str.114, i64 noundef 8)
  br label %49

49:                                               ; preds = %42, %31
  %50 = load ptr, ptr %3, align 8
  %51 = load ptr, ptr %4, align 8
  call void @fw_cfg_common_realize(ptr noundef %50, ptr noundef %51)
  store i32 0, ptr %7, align 4
  br label %52

52:                                               ; preds = %49, %30
  call void @llvm.lifetime.end.p0(i64 8, ptr %6) #18
  call void @glib_auto_cleanup_ErrorPropagator(ptr noundef %5)
  call void @llvm.lifetime.end.p0(i64 16, ptr %5) #18
  %53 = load i32, ptr %7, align 4
  switch i32 %53, label %55 [
    i32 0, label %54
    i32 1, label %54
  ]

54:                                               ; preds = %52, %52
  ret void

55:                                               ; preds = %52
  unreachable
}