; Function Attrs: nounwind sspstrong uwtable
define internal void @fw_cfg_io_realize(ptr noundef %0, ptr noundef %1) #2 {
  %3 = alloca %struct.ErrorPropagator, align 8
  call void @llvm.lifetime.start.p0(i64 16, ptr nonnull %3) #18
  %4 = getelementptr inbounds nuw i8, ptr %3, i64 8
  store i64 0, ptr %3, align 8
  store ptr %1, ptr %4, align 8
  %5 = icmp eq ptr %1, null
  %6 = icmp eq ptr %1, @error_fatal
  %or.cond = or i1 %5, %6
  %spec.select = select i1 %or.cond, ptr %3, ptr %1
  %7 = tail call ptr @object_dynamic_cast_assert(ptr noundef %0, ptr noundef nonnull @.str.10, ptr noundef nonnull @.str.80, i32 noundef 16, ptr noundef nonnull @__func__.FW_CFG_IO) #18
  %8 = tail call ptr @object_dynamic_cast_assert(ptr noundef %7, ptr noundef nonnull @.str.12, ptr noundef nonnull @.str.80, i32 noundef 15, ptr noundef nonnull @__func__.FW_CFG) #18
  call fastcc void @fw_cfg_file_slots_allocate(ptr noundef %8, ptr noundef %spec.select)
  %9 = load ptr, ptr %spec.select, align 8
  %.not = icmp eq ptr %9, null
  br i1 %.not, label %10, label %22

10:                                               ; preds = %2
  %11 = getelementptr inbounds nuw i8, ptr %7, i64 1216
  %12 = call ptr @object_dynamic_cast_assert(ptr noundef %7, ptr noundef nonnull @.str.12, ptr noundef nonnull @.str.80, i32 noundef 15, ptr noundef nonnull @__func__.FW_CFG) #18
  call void @memory_region_init_io(ptr noundef nonnull %11, ptr noundef %7, ptr noundef nonnull @fw_cfg_comb_mem_ops, ptr noundef %12, ptr noundef nonnull @.str.113, i64 noundef 2) #18
  %13 = call ptr @object_dynamic_cast_assert(ptr noundef %7, ptr noundef nonnull @.str.12, ptr noundef nonnull @.str.80, i32 noundef 15, ptr noundef nonnull @__func__.FW_CFG) #18
  %14 = getelementptr inbounds nuw i8, ptr %13, i64 884
  %15 = load i8, ptr %14, align 4, !range !4, !noundef !5
  %16 = trunc nuw i8 %15 to i1
  br i1 %16, label %17, label %21

17:                                               ; preds = %10
  %18 = call ptr @object_dynamic_cast_assert(ptr noundef nonnull %7, ptr noundef nonnull @.str.12, ptr noundef nonnull @.str.80, i32 noundef 15, ptr noundef nonnull @__func__.FW_CFG) #18
  %19 = getelementptr inbounds nuw i8, ptr %18, i64 912
  %20 = call ptr @object_dynamic_cast_assert(ptr noundef nonnull %7, ptr noundef nonnull @.str.12, ptr noundef nonnull @.str.80, i32 noundef 15, ptr noundef nonnull @__func__.FW_CFG) #18
  call void @memory_region_init_io(ptr noundef nonnull %19, ptr noundef nonnull %7, ptr noundef nonnull @fw_cfg_dma_mem_ops, ptr noundef %20, ptr noundef nonnull @.str.114, i64 noundef 8) #18
  br label %21

21:                                               ; preds = %17, %10
  call fastcc void @fw_cfg_common_realize(ptr noundef %0, ptr noundef nonnull %spec.select)
  br label %22

22:                                               ; preds = %2, %21
  %.val = load ptr, ptr %3, align 8
  %.val18 = load ptr, ptr %4, align 8
  call void @error_propagate(ptr noundef %.val18, ptr noundef %.val) #18
  call void @llvm.lifetime.end.p0(i64 16, ptr nonnull %3) #18
  ret void
}